target datalayout = "e-m:e-p270:32:32-p271:32:32-p272:64:64-i64:64-i128:128-f80:128-n8:16:32:64-S128"
target triple = "x86_64-pc-linux-gnu"

%struct.mbedtls_x509write_cert = type { i32, [20 x i8], i64, ptr, ptr, ptr, ptr, i32, [16 x i8], [16 x i8], ptr }

; Function Attrs: nounwind uwtable
define hidden i32 @mbedtls_x509write_crt_set_serial(ptr noundef %0, ptr noundef %1) #0 {
  %3 = alloca i32, align 4
  %4 = alloca ptr, align 8
  %5 = alloca ptr, align 8
  %6 = alloca i32, align 4
  %7 = alloca i64, align 8
  %8 = alloca i32, align 4
  store ptr %0, ptr %4, align 8, !tbaa !3
  store ptr %1, ptr %5, align 8, !tbaa !21
  call void @llvm.lifetime.start.p0(i64 4, ptr %6) #8
  call void @llvm.lifetime.start.p0(i64 8, ptr %7) #8
  %9 = load ptr, ptr %5, align 8, !tbaa !21
  %10 = call i64 @mbedtls_mpi_size(ptr noundef %9)
  store i64 %10, ptr %7, align 8, !tbaa !23
  %11 = load i64, ptr %7, align 8, !tbaa !23
  %12 = icmp ugt i64 %11, 20
  br i1 %12, label %13, label %14

13:                                               ; preds = %2
  store i32 -10240, ptr %3, align 4
  store i32 1, ptr %8, align 4
  br label %29

14:                                               ; preds = %2
  %15 = load i64, ptr %7, align 8, !tbaa !23
  %16 = load ptr, ptr %4, align 8, !tbaa !3
  %17 = getelementptr inbounds nuw %struct.mbedtls_x509write_cert, ptr %16, i32 0, i32 2
  store i64 %15, ptr %17, align 8, !tbaa !24
  %18 = load ptr, ptr %5, align 8, !tbaa !21
  %19 = load ptr, ptr %4, align 8, !tbaa !3
  %20 = getelementptr inbounds nuw %struct.mbedtls_x509write_cert, ptr %19, i32 0, i32 1
  %21 = getelementptr inbounds [20 x i8], ptr %20, i64 0, i64 0
  %22 = load i64, ptr %7, align 8, !tbaa !23
  %23 = call i32 @mbedtls_mpi_write_binary(ptr noundef %18, ptr noundef %21, i64 noundef %22)
  store i32 %23, ptr %6, align 4, !tbaa !14
  %24 = load i32, ptr %6, align 4, !tbaa !14
  %25 = icmp slt i32 %24, 0
  br i1 %25, label %26, label %28

26:                                               ; preds = %14
  %27 = load i32, ptr %6, align 4, !tbaa !14
  store i32 %27, ptr %3, align 4
  store i32 1, ptr %8, align 4
  br label %29

28:                                               ; preds = %14
  store i32 0, ptr %3, align 4
  store i32 1, ptr %8, align 4
  br label %29

29:                                               ; preds = %28, %26, %13
  call void @llvm.lifetime.end.p0(i64 8, ptr %7) #8
  call void @llvm.lifetime.end.p0(i64 4, ptr %6) #8
  %30 = load i32, ptr %3, align 4
  ret i32 %30
}