; Function Attrs: nounwind uwtable
define hidden range(i32 -2147483648, 1) i32 @mbedtls_x509write_crt_set_serial(ptr noundef %0, ptr noundef %1) local_unnamed_addr #2 {
  %3 = tail call i64 @mbedtls_mpi_size(ptr noundef %1) #11
  %4 = icmp ugt i64 %3, 20
  br i1 %4, label %9, label %5

5:                                                ; preds = %2
  %6 = getelementptr inbounds nuw i8, ptr %0, i64 24
  store i64 %3, ptr %6, align 8, !tbaa !15
  %7 = getelementptr inbounds nuw i8, ptr %0, i64 4
  %8 = tail call i32 @mbedtls_mpi_write_binary(ptr noundef %1, ptr noundef nonnull %7, i64 noundef %3) #11
  %. = tail call i32 @llvm.smin.i32(i32 %8, i32 0)
  br label %9

9:                                                ; preds = %5, %2
  %.0 = phi i32 [ -10240, %2 ], [ %., %5 ]
  ret i32 %.0
}